target datalayout = "e-m:e-p270:32:32-p271:32:32-p272:64:64-i64:64-i128:128-f80:128-n8:16:32:64-S128"
target triple = "x86_64-pc-linux-gnu"

%"struct.Luau::NotNull" = type { ptr }
%"struct.Luau::NotNull.0" = type { ptr }
%"struct.Luau::Anyification" = type <{ %"struct.Luau::Substitution", %"struct.Luau::NotNull", %"struct.Luau::NotNull.0", ptr, ptr, ptr, i8, [7 x i8] }>
%"struct.Luau::Substitution" = type { %"struct.Luau::Tarjan", ptr, %"class.Luau::DenseHashMap.24", %"class.Luau::DenseHashMap.27", %"class.Luau::DenseHashSet", %"class.Luau::DenseHashSet.32", %"class.Luau::DenseHashSet", %"class.Luau::DenseHashSet.32" }
%"struct.Luau::Tarjan" = type { ptr, %"class.Luau::DenseHashMap", %"class.Luau::DenseHashMap.1", %"class.std::vector", %"class.std::vector.4", i32, i32, ptr, %"class.std::vector.9", %"class.std::vector.14", %"class.std::vector.19" }
%"class.Luau::DenseHashMap" = type { %"class.Luau::detail::DenseHashTable" }
%"class.Luau::detail::DenseHashTable" = type <{ ptr, i64, i64, ptr, [8 x i8] }>
%"class.Luau::DenseHashMap.1" = type { %"class.Luau::detail::DenseHashTable.2" }
%"class.Luau::detail::DenseHashTable.2" = type <{ ptr, i64, i64, ptr, [8 x i8] }>
%"class.std::vector" = type { %"struct.std::_Vector_base" }
%"struct.std::_Vector_base" = type { %"struct.std::_Vector_base<Luau::TarjanNode, std::allocator<Luau::TarjanNode>>::_Vector_impl" }
%"struct.std::_Vector_base<Luau::TarjanNode, std::allocator<Luau::TarjanNode>>::_Vector_impl" = type { %"struct.std::_Vector_base<Luau::TarjanNode, std::allocator<Luau::TarjanNode>>::_Vector_impl_data" }
%"struct.std::_Vector_base<Luau::TarjanNode, std::allocator<Luau::TarjanNode>>::_Vector_impl_data" = type { ptr, ptr, ptr }
%"class.std::vector.4" = type { %"struct.std::_Vector_base.5" }
%"struct.std::_Vector_base.5" = type { %"struct.std::_Vector_base<int, std::allocator<int>>::_Vector_impl" }
%"struct.std::_Vector_base<int, std::allocator<int>>::_Vector_impl" = type { %"struct.std::_Vector_base<int, std::allocator<int>>::_Vector_impl_data" }
%"struct.std::_Vector_base<int, std::allocator<int>>::_Vector_impl_data" = type { ptr, ptr, ptr }
%"class.std::vector.9" = type { %"struct.std::_Vector_base.10" }
%"struct.std::_Vector_base.10" = type { %"struct.std::_Vector_base<const Luau::Type *, std::allocator<const Luau::Type *>>::_Vector_impl" }
%"struct.std::_Vector_base<const Luau::Type *, std::allocator<const Luau::Type *>>::_Vector_impl" = type { %"struct.std::_Vector_base<const Luau::Type *, std::allocator<const Luau::Type *>>::_Vector_impl_data" }
%"struct.std::_Vector_base<const Luau::Type *, std::allocator<const Luau::Type *>>::_Vector_impl_data" = type { ptr, ptr, ptr }
%"class.std::vector.14" = type { %"struct.std::_Vector_base.15" }
%"struct.std::_Vector_base.15" = type { %"struct.std::_Vector_base<const Luau::TypePackVar *, std::allocator<const Luau::TypePackVar *>>::_Vector_impl" }
%"struct.std::_Vector_base<const Luau::TypePackVar *, std::allocator<const Luau::TypePackVar *>>::_Vector_impl" = type { %"struct.std::_Vector_base<const Luau::TypePackVar *, std::allocator<const Luau::TypePackVar *>>::_Vector_impl_data" }
%"struct.std::_Vector_base<const Luau::TypePackVar *, std::allocator<const Luau::TypePackVar *>>::_Vector_impl_data" = type { ptr, ptr, ptr }
%"class.std::vector.19" = type { %"struct.std::_Vector_base.20" }
%"struct.std::_Vector_base.20" = type { %"struct.std::_Vector_base<Luau::TarjanWorklistVertex, std::allocator<Luau::TarjanWorklistVertex>>::_Vector_impl" }
%"struct.std::_Vector_base<Luau::TarjanWorklistVertex, std::allocator<Luau::TarjanWorklistVertex>>::_Vector_impl" = type { %"struct.std::_Vector_base<Luau::TarjanWorklistVertex, std::allocator<Luau::TarjanWorklistVertex>>::_Vector_impl_data" }
%"struct.std::_Vector_base<Luau::TarjanWorklistVertex, std::allocator<Luau::TarjanWorklistVertex>>::_Vector_impl_data" = type { ptr, ptr, ptr }
%"class.Luau::DenseHashMap.24" = type { %"class.Luau::detail::DenseHashTable.25" }
%"class.Luau::detail::DenseHashTable.25" = type <{ ptr, i64, i64, ptr, [8 x i8] }>
%"class.Luau::DenseHashMap.27" = type { %"class.Luau::detail::DenseHashTable.28" }
%"class.Luau::detail::DenseHashTable.28" = type <{ ptr, i64, i64, ptr, [8 x i8] }>
%"class.Luau::DenseHashSet" = type { %"class.Luau::detail::DenseHashTable.30" }
%"class.Luau::detail::DenseHashTable.30" = type <{ ptr, i64, i64, ptr, [8 x i8] }>
%"class.Luau::DenseHashSet.32" = type { %"class.Luau::detail::DenseHashTable.33" }
%"class.Luau::detail::DenseHashTable.33" = type <{ ptr, i64, i64, ptr, [8 x i8] }>

; Function Attrs: mustprogress uwtable
define dso_local void @_ZN4Luau12AnyificationC2EPNS_9TypeArenaENS_7NotNullINS_5ScopeEEENS3_INS_12BuiltinTypesEEEPNS_21InternalErrorReporterEPKNS_4TypeEPKNS_11TypePackVarE(ptr noundef nonnull align 8 dereferenceable(513) %0, ptr noundef %1, ptr %2, ptr %3, ptr noundef %4, ptr noundef %5, ptr noundef %6) unnamed_addr #2 align 2 {
  %8 = alloca %"struct.Luau::NotNull", align 8
  %9 = alloca %"struct.Luau::NotNull.0", align 8
  %10 = alloca ptr, align 8
  %11 = alloca ptr, align 8
  %12 = alloca ptr, align 8
  %13 = alloca ptr, align 8
  %14 = alloca ptr, align 8
  %15 = getelementptr inbounds nuw %"struct.Luau::NotNull", ptr %8, i32 0, i32 0
  store ptr %2, ptr %15, align 8
  %16 = getelementptr inbounds nuw %"struct.Luau::NotNull.0", ptr %9, i32 0, i32 0
  store ptr %3, ptr %16, align 8
  store ptr %0, ptr %10, align 8, !tbaa !8
  store ptr %1, ptr %11, align 8, !tbaa !11
  store ptr %4, ptr %12, align 8, !tbaa !13
  store ptr %5, ptr %13, align 8, !tbaa !15
  store ptr %6, ptr %14, align 8, !tbaa !17
  %17 = load ptr, ptr %10, align 8
  %18 = call noundef ptr @_ZN4Luau6TxnLog5emptyEv()
  %19 = load ptr, ptr %11, align 8, !tbaa !11
  call void @_ZN4Luau12SubstitutionC2EPKNS_6TxnLogEPNS_9TypeArenaE(ptr noundef nonnull align 8 dereferenceable(472) %17, ptr noundef %18, ptr noundef %19)
  store ptr getelementptr inbounds inrange(-16, 80) ({ [12 x ptr] }, ptr @_ZTVN4Luau12AnyificationE, i32 0, i32 0, i32 2), ptr %17, align 8, !tbaa !19
  %20 = getelementptr inbounds nuw %"struct.Luau::Anyification", ptr %17, i32 0, i32 1
  call void @llvm.memcpy.p0.p0.i64(ptr align 8 %20, ptr align 8 %8, i64 8, i1 false), !tbaa.struct !21
  %21 = getelementptr inbounds nuw %"struct.Luau::Anyification", ptr %17, i32 0, i32 2
  call void @llvm.memcpy.p0.p0.i64(ptr align 8 %21, ptr align 8 %9, i64 8, i1 false), !tbaa.struct !24
  %22 = getelementptr inbounds nuw %"struct.Luau::Anyification", ptr %17, i32 0, i32 3
  %23 = load ptr, ptr %12, align 8, !tbaa !13
  store ptr %23, ptr %22, align 8, !tbaa !27
  %24 = getelementptr inbounds nuw %"struct.Luau::Anyification", ptr %17, i32 0, i32 4
  %25 = load ptr, ptr %13, align 8, !tbaa !15
  store ptr %25, ptr %24, align 8, !tbaa !81
  %26 = getelementptr inbounds nuw %"struct.Luau::Anyification", ptr %17, i32 0, i32 5
  %27 = load ptr, ptr %14, align 8, !tbaa !17
  store ptr %27, ptr %26, align 8, !tbaa !82
  %28 = getelementptr inbounds nuw %"struct.Luau::Anyification", ptr %17, i32 0, i32 6
  store i8 0, ptr %28, align 8, !tbaa !83
  ret void
}