; Function Attrs: mustprogress uwtable
define dso_local void @_ZN4Luau12AnyificationC2EPNS_9TypeArenaENS_7NotNullINS_5ScopeEEENS3_INS_12BuiltinTypesEEEPNS_21InternalErrorReporterEPKNS_4TypeEPKNS_11TypePackVarE(ptr noundef nonnull align 8 dereferenceable(513) %0, ptr noundef %1, ptr %2, ptr %3, ptr noundef %4, ptr noundef %5, ptr noundef %6) unnamed_addr #2 align 2 {
  %8 = tail call noundef ptr @_ZN4Luau6TxnLog5emptyEv()
  tail call void @_ZN4Luau12SubstitutionC2EPKNS_6TxnLogEPNS_9TypeArenaE(ptr noundef nonnull align 8 dereferenceable(472) %0, ptr noundef %8, ptr noundef %1)
  store ptr getelementptr inbounds nuw inrange(-16, 80) (i8, ptr @_ZTVN4Luau12AnyificationE, i64 16), ptr %0, align 8, !tbaa !8
  %9 = getelementptr inbounds nuw i8, ptr %0, i64 472
  store ptr %2, ptr %9, align 8, !tbaa !10
  %10 = getelementptr inbounds nuw i8, ptr %0, i64 480
  store ptr %3, ptr %10, align 8, !tbaa !13
  %11 = getelementptr inbounds nuw i8, ptr %0, i64 488
  store ptr %4, ptr %11, align 8, !tbaa !15
  %12 = getelementptr inbounds nuw i8, ptr %0, i64 496
  store ptr %5, ptr %12, align 8, !tbaa !73
  %13 = getelementptr inbounds nuw i8, ptr %0, i64 504
  store ptr %6, ptr %13, align 8, !tbaa !74
  %14 = getelementptr inbounds nuw i8, ptr %0, i64 512
  store i8 0, ptr %14, align 8, !tbaa !75
  ret void
}